target datalayout = "e-m:e-p270:32:32-p271:32:32-p272:64:64-i64:64-i128:128-f80:128-n8:16:32:64-S128"
target triple = "x86_64-pc-linux-gnu"

%struct.Abc_Frame_t_ = type { ptr, ptr, ptr, ptr, ptr, ptr, ptr, ptr, ptr, ptr, i32, i32, i32, i32, i32, ptr, float, float, i32, i32, ptr, ptr, ptr, double, double, ptr, ptr, ptr, ptr, ptr, ptr, ptr, ptr, ptr, ptr, ptr, ptr, float, ptr, i32, ptr, ptr, ptr, ptr, ptr, i32, i32, i32, i32, i32, i32, ptr, ptr, ptr, ptr, ptr, ptr, i32, i32, ptr, ptr, ptr, ptr, ptr, ptr, ptr, ptr, ptr, ptr, ptr, ptr, ptr, ptr, ptr, ptr, ptr, ptr, ptr, ptr, ptr, ptr, ptr, ptr, ptr, ptr, ptr, ptr, ptr, ptr }

@globalUtilOptind = external global i32, align 4
@.str.25 = private unnamed_addr constant [4 x i8] c"yes\00", align 1
@.str.26 = private unnamed_addr constant [3 x i8] c"no\00", align 1
@.str.34 = private unnamed_addr constant [62 x i8] c"\09-v     : toggle printing verbose information [default = %s]\0A\00", align 1
@.str.35 = private unnamed_addr constant [35 x i8] c"\09-h     : print the command usage\0A\00", align 1
@.str.38 = private unnamed_addr constant [4 x i8] c"ivh\00", align 1
@.str.39 = private unnamed_addr constant [28 x i8] c"The design is not entered.\0A\00", align 1
@.str.40 = private unnamed_addr constant [81 x i8] c"Abc_CommandGraft(): This command expects one AIG file name on the command line.\0A\00", align 1
@.str.41 = private unnamed_addr constant [53 x i8] c"usage: %%graft [-ivh] <module1_name> <module2_name>\0A\00", align 1
@.str.42 = private unnamed_addr constant [60 x i8] c"\09         replace instances of module1 by those of module2\0A\00", align 1
@.str.43 = private unnamed_addr constant [56 x i8] c"\09-i     : toggle using inverse grafting [default = %s]\0A\00", align 1

; Function Attrs: inlinehint nounwind uwtable
define internal ptr @Wln_AbcGetRtl(ptr noundef %0) #2 {
  %2 = alloca ptr, align 8
  store ptr %0, ptr %2, align 8, !tbaa !3
  %3 = load ptr, ptr %2, align 8, !tbaa !3
  %4 = getelementptr inbounds nuw %struct.Abc_Frame_t_, ptr %3, i32 0, i32 73
  %5 = load ptr, ptr %4, align 8, !tbaa !26
  ret ptr %5
}

; Function Attrs: nounwind uwtable
define internal i32 @Abc_CommandGraft(ptr noundef %0, i32 noundef %1, ptr noundef %2) #0 {
  %4 = alloca i32, align 4
  %5 = alloca ptr, align 8
  %6 = alloca i32, align 4
  %7 = alloca ptr, align 8
  %8 = alloca ptr, align 8
  %9 = alloca ptr, align 8
  %10 = alloca i32, align 4
  %11 = alloca i32, align 4
  %12 = alloca i32, align 4
  %13 = alloca i32, align 4
  %14 = alloca i32, align 4
  store ptr %0, ptr %5, align 8, !tbaa !3
  store i32 %1, ptr %6, align 4, !tbaa !8
  store ptr %2, ptr %7, align 8, !tbaa !10
  call void @llvm.lifetime.start.p0(i64 8, ptr %8) #7
  %15 = load ptr, ptr %5, align 8, !tbaa !3
  %16 = call ptr @Wln_AbcGetRtl(ptr noundef %15)
  store ptr %16, ptr %8, align 8, !tbaa !20
  call void @llvm.lifetime.start.p0(i64 8, ptr %9) #7
  call void @llvm.lifetime.start.p0(i64 4, ptr %10) #7
  call void @llvm.lifetime.start.p0(i64 4, ptr %11) #7
  call void @llvm.lifetime.start.p0(i64 4, ptr %12) #7
  store i32 0, ptr %12, align 4, !tbaa !8
  call void @llvm.lifetime.start.p0(i64 4, ptr %13) #7
  store i32 0, ptr %13, align 4, !tbaa !8
  call void (...) @Extra_UtilGetoptReset()
  br label %17

17:                                               ; preds = %32, %3
  %18 = load i32, ptr %6, align 4, !tbaa !8
  %19 = load ptr, ptr %7, align 8, !tbaa !10
  %20 = call i32 @Extra_UtilGetopt(i32 noundef %18, ptr noundef %19, ptr noundef @.str.38)
  store i32 %20, ptr %11, align 4, !tbaa !8
  %21 = icmp ne i32 %20, -1
  br i1 %21, label %22, label %33

22:                                               ; preds = %17
  %23 = load i32, ptr %11, align 4, !tbaa !8
  switch i32 %23, label %31 [
    i32 105, label %24
    i32 118, label %27
    i32 104, label %30
  ]

24:                                               ; preds = %22
  %25 = load i32, ptr %12, align 4, !tbaa !8
  %26 = xor i32 %25, 1
  store i32 %26, ptr %12, align 4, !tbaa !8
  br label %32

27:                                               ; preds = %22
  %28 = load i32, ptr %13, align 4, !tbaa !8
  %29 = xor i32 %28, 1
  store i32 %29, ptr %13, align 4, !tbaa !8
  br label %32

30:                                               ; preds = %22
  br label %58

31:                                               ; preds = %22
  br label %58

32:                                               ; preds = %27, %24
  br label %17, !llvm.loop !22

33:                                               ; preds = %17
  %34 = load ptr, ptr %8, align 8, !tbaa !20
  %35 = icmp eq ptr %34, null
  br i1 %35, label %36, label %38

36:                                               ; preds = %33
  %37 = call i32 (ptr, ...) @printf(ptr noundef @.str.39)
  store i32 1, ptr %4, align 4
  store i32 1, ptr %14, align 4
  br label %65

38:                                               ; preds = %33
  %39 = load ptr, ptr %7, align 8, !tbaa !10
  %40 = load i32, ptr @globalUtilOptind, align 4, !tbaa !8
  %41 = sext i32 %40 to i64
  %42 = getelementptr inbounds ptr, ptr %39, i64 %41
  store ptr %42, ptr %9, align 8, !tbaa !10
  %43 = load i32, ptr %6, align 4, !tbaa !8
  %44 = load i32, ptr @globalUtilOptind, align 4, !tbaa !8
  %45 = sub nsw i32 %43, %44
  store i32 %45, ptr %10, align 4, !tbaa !8
  %46 = load i32, ptr %10, align 4, !tbaa !8
  %47 = icmp ne i32 %46, 0
  br i1 %47, label %48, label %52

48:                                               ; preds = %38
  %49 = load i32, ptr %10, align 4, !tbaa !8
  %50 = icmp ne i32 %49, 2
  br i1 %50, label %51, label %52

51:                                               ; preds = %48
  call void (i32, ptr, ...) @Abc_Print(i32 noundef -1, ptr noundef @.str.40)
  store i32 1, ptr %4, align 4
  store i32 1, ptr %14, align 4
  br label %65

52:                                               ; preds = %48, %38
  %53 = load ptr, ptr %8, align 8, !tbaa !20
  %54 = load ptr, ptr %9, align 8, !tbaa !10
  %55 = load i32, ptr %10, align 4, !tbaa !8
  %56 = load i32, ptr %12, align 4, !tbaa !8
  %57 = load i32, ptr %13, align 4, !tbaa !8
  call void @Wln_LibGraftOne(ptr noundef %53, ptr noundef %54, i32 noundef %55, i32 noundef %56, i32 noundef %57)
  store i32 0, ptr %4, align 4
  store i32 1, ptr %14, align 4
  br label %65

58:                                               ; preds = %31, %30
  call void (i32, ptr, ...) @Abc_Print(i32 noundef -2, ptr noundef @.str.41)
  call void (i32, ptr, ...) @Abc_Print(i32 noundef -2, ptr noundef @.str.42)
  %59 = load i32, ptr %12, align 4, !tbaa !8
  %60 = icmp ne i32 %59, 0
  %61 = select i1 %60, ptr @.str.25, ptr @.str.26
  call void (i32, ptr, ...) @Abc_Print(i32 noundef -2, ptr noundef @.str.43, ptr noundef %61)
  %62 = load i32, ptr %13, align 4, !tbaa !8
  %63 = icmp ne i32 %62, 0
  %64 = select i1 %63, ptr @.str.25, ptr @.str.26
  call void (i32, ptr, ...) @Abc_Print(i32 noundef -2, ptr noundef @.str.34, ptr noundef %64)
  call void (i32, ptr, ...) @Abc_Print(i32 noundef -2, ptr noundef @.str.35)
  store i32 1, ptr %4, align 4
  store i32 1, ptr %14, align 4
  br label %65

65:                                               ; preds = %58, %52, %51, %36
  call void @llvm.lifetime.end.p0(i64 4, ptr %13) #7
  call void @llvm.lifetime.end.p0(i64 4, ptr %12) #7
  call void @llvm.lifetime.end.p0(i64 4, ptr %11) #7
  call void @llvm.lifetime.end.p0(i64 4, ptr %10) #7
  call void @llvm.lifetime.end.p0(i64 8, ptr %9) #7
  call void @llvm.lifetime.end.p0(i64 8, ptr %8) #7
  %66 = load i32, ptr %4, align 4
  ret i32 %66
}