; Function Attrs: nounwind uwtable
define internal range(i32 0, 2) i32 @Abc_CommandGraft(ptr noundef readonly captures(none) %0, i32 noundef %1, ptr noundef %2) #0 {
  %4 = getelementptr i8, ptr %0, i64 520
  %.val = load ptr, ptr %4, align 8, !tbaa !12
  tail call void (...) @Extra_UtilGetoptReset() #10
  br label %.outer

.outer:                                           ; preds = %7, %3
  %.019.ph = phi i32 [ %8, %7 ], [ 0, %3 ]
  %.0.ph = phi i32 [ %.0, %7 ], [ 0, %3 ]
  br label %5

5:                                                ; preds = %.outer, %9
  %.0 = phi i32 [ %10, %9 ], [ %.0.ph, %.outer ]
  %6 = tail call i32 @Extra_UtilGetopt(i32 noundef %1, ptr noundef %2, ptr noundef nonnull @.str.38) #10
  switch i32 %6, label %23 [
    i32 -1, label %11
    i32 105, label %7
    i32 118, label %9
  ]

7:                                                ; preds = %5
  %8 = xor i32 %.019.ph, 1
  br label %.outer, !llvm.loop !27

9:                                                ; preds = %5
  %10 = xor i32 %.0, 1
  br label %5, !llvm.loop !27

11:                                               ; preds = %5
  %12 = icmp eq ptr %.val, null
  br i1 %12, label %13, label %14

13:                                               ; preds = %11
  %puts = tail call i32 @puts(ptr nonnull dereferenceable(1) @str.6)
  br label %26

14:                                               ; preds = %11
  %15 = load i32, ptr @globalUtilOptind, align 4, !tbaa !3
  %16 = sub nsw i32 %1, %15
  %17 = icmp ne i32 %1, %15
  %18 = icmp ne i32 %16, 2
  %or.cond = select i1 %17, i1 %18, i1 false
  br i1 %or.cond, label %19, label %20

19:                                               ; preds = %14
  tail call void (i32, ptr, ...) @Abc_Print(i32 noundef -1, ptr noundef nonnull @.str.40)
  br label %26

20:                                               ; preds = %14
  %21 = sext i32 %15 to i64
  %22 = getelementptr inbounds ptr, ptr %2, i64 %21
  tail call void @Wln_LibGraftOne(ptr noundef nonnull %.val, ptr noundef %22, i32 noundef %16, i32 noundef %.019.ph, i32 noundef %.0) #10
  br label %26

23:                                               ; preds = %5
  tail call void (i32, ptr, ...) @Abc_Print(i32 noundef -2, ptr noundef nonnull @.str.41)
  tail call void (i32, ptr, ...) @Abc_Print(i32 noundef -2, ptr noundef nonnull @.str.42)
  %.not24 = icmp eq i32 %.019.ph, 0
  %24 = select i1 %.not24, ptr @.str.26, ptr @.str.25
  tail call void (i32, ptr, ...) @Abc_Print(i32 noundef -2, ptr noundef nonnull @.str.43, ptr noundef nonnull %24)
  %.not25 = icmp eq i32 %.0, 0
  %25 = select i1 %.not25, ptr @.str.26, ptr @.str.25
  tail call void (i32, ptr, ...) @Abc_Print(i32 noundef -2, ptr noundef nonnull @.str.34, ptr noundef nonnull %25)
  tail call void (i32, ptr, ...) @Abc_Print(i32 noundef -2, ptr noundef nonnull @.str.35)
  br label %26

26:                                               ; preds = %23, %20, %19, %13
  %.021 = phi i32 [ 1, %23 ], [ 1, %13 ], [ 1, %19 ], [ 0, %20 ]
  ret i32 %.021
}